; Function Attrs: mustprogress uwtable
define dso_local void @_ZN4onnx26TensorShapeProto_Dimension8CopyFromERKN6google8protobuf7MessageE(ptr noundef nonnull align 8 dereferenceable(48) %0, ptr noundef nonnull align 8 dereferenceable(16) %1) unnamed_addr #3 align 2 personality ptr @__gxx_personality_v0 {
  %3 = icmp eq ptr %1, %0
  br i1 %3, label %_ZN4onnx26TensorShapeProto_Dimension9MergeFromERKN6google8protobuf7MessageE.exit, label %4

4:                                                ; preds = %2
  tail call void @_ZN4onnx26TensorShapeProto_Dimension5ClearEv(ptr noundef nonnull align 8 dereferenceable(48) %0)
  %5 = load ptr, ptr %1, align 8, !tbaa !9
  %6 = icmp eq ptr %5, getelementptr inbounds nuw inrange(-16, 160) (i8, ptr @_ZTVN4onnx26TensorShapeProto_DimensionE, i64 16)
  br i1 %6, label %_ZN6google8protobuf22DynamicCastToGeneratedIN4onnx26TensorShapeProto_DimensionEEEPKT_PKNS0_7MessageE.exit.i, label %7

7:                                                ; preds = %4
  tail call void @_ZN6google8protobuf8internal13ReflectionOps5MergeERKNS0_7MessageEPS3_(ptr noundef nonnull align 8 dereferenceable(16) %1, ptr noundef nonnull align 8 dereferenceable(48) %0)
  br label %_ZN4onnx26TensorShapeProto_Dimension9MergeFromERKN6google8protobuf7MessageE.exit

_ZN6google8protobuf22DynamicCastToGeneratedIN4onnx26TensorShapeProto_DimensionEEEPKT_PKNS0_7MessageE.exit.i: ; preds = %4
  tail call void @_ZN4onnx26TensorShapeProto_Dimension9MergeFromERKS0_(ptr noundef nonnull align 8 dereferenceable(48) %0, ptr noundef nonnull align 8 dereferenceable(48) %1)
  br label %_ZN4onnx26TensorShapeProto_Dimension9MergeFromERKN6google8protobuf7MessageE.exit

_ZN4onnx26TensorShapeProto_Dimension9MergeFromERKN6google8protobuf7MessageE.exit: ; preds = %_ZN6google8protobuf22DynamicCastToGeneratedIN4onnx26TensorShapeProto_DimensionEEEPKT_PKNS0_7MessageE.exit.i, %7, %2
  ret void
}